target datalayout = "e-m:e-p270:32:32-p271:32:32-p272:64:64-i64:64-i128:128-f80:128-n8:16:32:64-S128"
target triple = "x86_64-pc-linux-gnu"

%struct.mbedtls_mpi = type { i32, i64, ptr }

; Function Attrs: mustprogress uwtable
define hidden i32 @mbedtls_mpi_add_int(ptr noundef %0, ptr noundef %1, i64 noundef %2) #1 {
  %4 = alloca ptr, align 8
  %5 = alloca ptr, align 8
  %6 = alloca i64, align 8
  %7 = alloca %struct.mbedtls_mpi, align 8
  %8 = alloca [1 x i64], align 8
  store ptr %0, ptr %4, align 8, !tbaa !3
  store ptr %1, ptr %5, align 8, !tbaa !3
  store i64 %2, ptr %6, align 8, !tbaa !16
  call void @llvm.lifetime.start.p0(i64 24, ptr %7) #10
  call void @llvm.lifetime.start.p0(i64 8, ptr %8) #10
  br label %9

9:                                                ; preds = %3
  br label %10

10:                                               ; preds = %9
  br label %11

11:                                               ; preds = %10
  br label %12

12:                                               ; preds = %11
  br label %13

13:                                               ; preds = %12
  br label %14

14:                                               ; preds = %13
  %15 = load i64, ptr %6, align 8, !tbaa !16
  %16 = icmp slt i64 %15, 0
  br i1 %16, label %17, label %20

17:                                               ; preds = %14
  %18 = load i64, ptr %6, align 8, !tbaa !16
  %19 = sub nsw i64 0, %18
  br label %22

20:                                               ; preds = %14
  %21 = load i64, ptr %6, align 8, !tbaa !16
  br label %22

22:                                               ; preds = %20, %17
  %23 = phi i64 [ %19, %17 ], [ %21, %20 ]
  %24 = getelementptr inbounds [1 x i64], ptr %8, i64 0, i64 0
  store i64 %23, ptr %24, align 8, !tbaa !16
  %25 = load i64, ptr %6, align 8, !tbaa !16
  %26 = icmp slt i64 %25, 0
  %27 = select i1 %26, i32 -1, i32 1
  %28 = getelementptr inbounds nuw %struct.mbedtls_mpi, ptr %7, i32 0, i32 0
  store i32 %27, ptr %28, align 8, !tbaa !8
  %29 = getelementptr inbounds nuw %struct.mbedtls_mpi, ptr %7, i32 0, i32 1
  store i64 1, ptr %29, align 8, !tbaa !13
  %30 = getelementptr inbounds [1 x i64], ptr %8, i64 0, i64 0
  %31 = getelementptr inbounds nuw %struct.mbedtls_mpi, ptr %7, i32 0, i32 2
  store ptr %30, ptr %31, align 8, !tbaa !14
  %32 = load ptr, ptr %4, align 8, !tbaa !3
  %33 = load ptr, ptr %5, align 8, !tbaa !3
  %34 = call i32 @mbedtls_mpi_add_mpi(ptr noundef %32, ptr noundef %33, ptr noundef %7)
  call void @llvm.lifetime.end.p0(i64 8, ptr %8) #10
  call void @llvm.lifetime.end.p0(i64 24, ptr %7) #10
  ret i32 %34
}