; Function Attrs: mustprogress uwtable
define hidden range(i32 -16, 1) i32 @mbedtls_mpi_add_int(ptr noundef captures(address) %0, ptr noundef captures(address) %1, i64 noundef %2) local_unnamed_addr #1 {
  %4 = alloca %struct.mbedtls_mpi, align 8
  %5 = alloca [1 x i64], align 8
  call void @llvm.lifetime.start.p0(i64 24, ptr nonnull %4) #15
  call void @llvm.lifetime.start.p0(i64 8, ptr nonnull %5) #15
  %6 = icmp slt i64 %2, 0
  %7 = tail call i64 @llvm.abs.i64(i64 %2, i1 true)
  store i64 %7, ptr %5, align 8, !tbaa !13
  %8 = select i1 %6, i32 -1, i32 1
  store i32 %8, ptr %4, align 8, !tbaa !3
  %9 = getelementptr inbounds nuw i8, ptr %4, i64 8
  store i64 1, ptr %9, align 8, !tbaa !12
  %10 = getelementptr inbounds nuw i8, ptr %4, i64 16
  store ptr %5, ptr %10, align 8, !tbaa !11
  %11 = call i32 @mbedtls_mpi_add_mpi(ptr noundef %0, ptr noundef %1, ptr noundef nonnull %4)
  call void @llvm.lifetime.end.p0(i64 8, ptr nonnull %5) #15
  call void @llvm.lifetime.end.p0(i64 24, ptr nonnull %4) #15
  ret i32 %11
}